(dp0
S'colorsettings'
p1
(dp2
S'bluegate'
p3
(lp4
(lp5
S'94'
p6
aS'185'
p7
aS'58'
p8
aa(lp9
S'130'
p10
aS'223'
p11
aS'128'
p12
aaS'4'
p13
aS'5'
p14
aS'0'
p15
asS'ball'
p16
(lp17
(lp18
S'9'
p19
aS'189'
p20
aS'155'
p21
aa(lp22
S'20'
p23
aS'255'
p24
aS'255'
p25
aaS'3'
p26
aS'5'
p27
aS'32'
p28
asS'borderline'
p29
(lp30
(lp31
S'62'
p32
aS'35'
p33
aS'42'
p34
aa(lp35
S'78'
p36
aS'101'
p37
aS'112'
p38
aag26
aS'4'
p39
aS'0'
p40
asS'yellowgate'
p41
(lp42
(lp43
S'24'
p44
aS'148'
p45
aS'141'
p46
aa(lp47
S'33'
p48
aS'197'
p49
aS'198'
p50
aaS'5'
p51
aS'5'
p52
aS'1000'
p53
assS'settings'
p54
(dp55
S'dummy2'
p56
L0L
sS'dummy3'
p57
L0L
sS'dummy1'
p58
L0L
ss.